; Function Attrs: mustprogress nounwind uwtable
define hidden void @_ZN18G1CMRootMemRegions11cancel_scanEv(ptr noundef nonnull align 8 dereferenceable(34) %0) local_unnamed_addr #0 align 2 {
  %2 = load ptr, ptr @RootRegionScan_lock, align 8
  %.not.i.i.i = icmp eq ptr %2, null
  br i1 %.not.i.i.i, label %_ZN11MutexLockerC2EP5MutexNS0_18SafepointCheckFlagE.exit.thread.i, label %4

_ZN11MutexLockerC2EP5MutexNS0_18SafepointCheckFlagE.exit.thread.i: ; preds = %1
  %3 = getelementptr inbounds i8, ptr %0, i64 32
  store volatile i8 0, ptr %3, align 8
  tail call void @_ZN7Monitor10notify_allEv(ptr noundef nonnull align 8 dereferenceable(104) null) #22
  br label %_ZN18G1CMRootMemRegions16notify_scan_doneEv.exit

4:                                                ; preds = %1
  tail call void @_ZN5Mutex28lock_without_safepoint_checkEv(ptr noundef nonnull align 8 dereferenceable(104) %2) #22
  %5 = getelementptr inbounds i8, ptr %0, i64 32
  store volatile i8 0, ptr %5, align 8
  %6 = load ptr, ptr @RootRegionScan_lock, align 8
  tail call void @_ZN7Monitor10notify_allEv(ptr noundef nonnull align 8 dereferenceable(104) %6) #22
  tail call void @_ZN5Mutex6unlockEv(ptr noundef nonnull align 8 dereferenceable(104) %2) #22
  br label %_ZN18G1CMRootMemRegions16notify_scan_doneEv.exit

_ZN18G1CMRootMemRegions16notify_scan_doneEv.exit: ; preds = %_ZN11MutexLockerC2EP5MutexNS0_18SafepointCheckFlagE.exit.thread.i, %4
  ret void
}